target datalayout = "e-m:e-p270:32:32-p271:32:32-p272:64:64-i64:64-i128:128-f80:128-n8:16:32:64-S128"
target triple = "x86_64-pc-linux-gnu"

%struct.lxb_html_tokenizer = type { ptr, ptr, ptr, ptr, ptr, ptr, ptr, ptr, ptr, ptr, ptr, ptr, ptr, ptr, ptr, i64, ptr, ptr, ptr, ptr, ptr, i64, i64, ptr, ptr, i64, i64, i32, i32, i8, i32, i32, i8, ptr, i64 }
%struct.lxb_html_token_t = type { ptr, ptr, i64, i64, ptr, ptr, ptr, ptr, ptr, i64, i64, i32 }

; Function Attrs: nounwind uwtable
define internal void @lxb_html_token_clean(ptr noundef %0) #0 {
  %2 = alloca ptr, align 8
  store ptr %0, ptr %2, align 8
  %3 = load ptr, ptr %2, align 8
  call void @llvm.memset.p0.i64(ptr align 8 %3, i8 0, i64 96, i1 false)
  ret void
}

; Function Attrs: nounwind uwtable
define internal ptr @lxb_html_tokenizer_state_doctype_between_public_and_system_identifiers(ptr noundef %0, ptr noundef %1, ptr noundef %2) #0 {
  %4 = alloca ptr, align 8
  %5 = alloca ptr, align 8
  %6 = alloca ptr, align 8
  %7 = alloca ptr, align 8
  %8 = alloca ptr, align 8
  store ptr %0, ptr %5, align 8
  store ptr %1, ptr %6, align 8
  store ptr %2, ptr %7, align 8
  %9 = load ptr, ptr %6, align 8
  %10 = load i8, ptr %9, align 1
  %11 = zext i8 %10 to i32
  switch i32 %11, label %185 [
    i32 9, label %12
    i32 10, label %12
    i32 12, label %12
    i32 13, label %12
    i32 32, label %12
    i32 62, label %15
    i32 34, label %71
    i32 39, label %92
    i32 0, label %113
  ]

12:                                               ; preds = %3, %3, %3, %3, %3
  %13 = load ptr, ptr %6, align 8
  %14 = getelementptr inbounds i8, ptr %13, i64 1
  store ptr %14, ptr %4, align 8
  br label %200

15:                                               ; preds = %3
  %16 = load ptr, ptr %5, align 8
  %17 = getelementptr inbounds %struct.lxb_html_tokenizer, ptr %16, i32 0, i32 0
  store ptr @lxb_html_tokenizer_state_data_before, ptr %17, align 8
  br label %18

18:                                               ; preds = %15
  %19 = load ptr, ptr %5, align 8
  %20 = getelementptr inbounds %struct.lxb_html_tokenizer, ptr %19, i32 0, i32 8
  %21 = load ptr, ptr %20, align 8
  %22 = getelementptr inbounds %struct.lxb_html_token_t, ptr %21, i32 0, i32 0
  %23 = load ptr, ptr %22, align 8
  %24 = load ptr, ptr %5, align 8
  %25 = getelementptr inbounds %struct.lxb_html_tokenizer, ptr %24, i32 0, i32 8
  %26 = load ptr, ptr %25, align 8
  %27 = getelementptr inbounds %struct.lxb_html_token_t, ptr %26, i32 0, i32 1
  %28 = load ptr, ptr %27, align 8
  %29 = icmp ne ptr %23, %28
  br i1 %29, label %30, label %59

30:                                               ; preds = %18
  %31 = load ptr, ptr %5, align 8
  %32 = getelementptr inbounds %struct.lxb_html_tokenizer, ptr %31, i32 0, i32 2
  %33 = load ptr, ptr %32, align 8
  %34 = load ptr, ptr %5, align 8
  %35 = load ptr, ptr %5, align 8
  %36 = getelementptr inbounds %struct.lxb_html_tokenizer, ptr %35, i32 0, i32 8
  %37 = load ptr, ptr %36, align 8
  %38 = load ptr, ptr %5, align 8
  %39 = getelementptr inbounds %struct.lxb_html_tokenizer, ptr %38, i32 0, i32 3
  %40 = load ptr, ptr %39, align 8
  %41 = call ptr %33(ptr noundef %34, ptr noundef %37, ptr noundef %40)
  %42 = load ptr, ptr %5, align 8
  %43 = getelementptr inbounds %struct.lxb_html_tokenizer, ptr %42, i32 0, i32 8
  store ptr %41, ptr %43, align 8
  %44 = load ptr, ptr %5, align 8
  %45 = getelementptr inbounds %struct.lxb_html_tokenizer, ptr %44, i32 0, i32 8
  %46 = load ptr, ptr %45, align 8
  %47 = icmp eq ptr %46, null
  br i1 %47, label %48, label %58

48:                                               ; preds = %30
  %49 = load ptr, ptr %5, align 8
  %50 = getelementptr inbounds %struct.lxb_html_tokenizer, ptr %49, i32 0, i32 31
  %51 = load i32, ptr %50, align 8
  %52 = icmp eq i32 %51, 0
  br i1 %52, label %53, label %56

53:                                               ; preds = %48
  %54 = load ptr, ptr %5, align 8
  %55 = getelementptr inbounds %struct.lxb_html_tokenizer, ptr %54, i32 0, i32 31
  store i32 1, ptr %55, align 8
  br label %56

56:                                               ; preds = %53, %48
  %57 = load ptr, ptr %7, align 8
  store ptr %57, ptr %4, align 8
  br label %200

58:                                               ; preds = %30
  br label %59

59:                                               ; preds = %58, %18
  %60 = load ptr, ptr %5, align 8
  %61 = getelementptr inbounds %struct.lxb_html_tokenizer, ptr %60, i32 0, i32 8
  %62 = load ptr, ptr %61, align 8
  call void @lxb_html_token_clean(ptr noundef %62)
  %63 = load ptr, ptr %5, align 8
  %64 = getelementptr inbounds %struct.lxb_html_tokenizer, ptr %63, i32 0, i32 16
  %65 = load ptr, ptr %64, align 8
  %66 = load ptr, ptr %5, align 8
  %67 = getelementptr inbounds %struct.lxb_html_tokenizer, ptr %66, i32 0, i32 17
  store ptr %65, ptr %67, align 8
  br label %68

68:                                               ; preds = %59
  %69 = load ptr, ptr %6, align 8
  %70 = getelementptr inbounds i8, ptr %69, i64 1
  store ptr %70, ptr %4, align 8
  br label %200

71:                                               ; preds = %3
  br label %72

72:                                               ; preds = %71
  %73 = load ptr, ptr %5, align 8
  %74 = getelementptr inbounds %struct.lxb_html_tokenizer, ptr %73, i32 0, i32 8
  %75 = load ptr, ptr %74, align 8
  %76 = load ptr, ptr %5, align 8
  %77 = getelementptr inbounds %struct.lxb_html_tokenizer, ptr %76, i32 0, i32 10
  %78 = load ptr, ptr %77, align 8
  %79 = call ptr @lxb_html_token_attr_append(ptr noundef %75, ptr noundef %78)
  store ptr %79, ptr %8, align 8
  %80 = load ptr, ptr %8, align 8
  %81 = icmp eq ptr %80, null
  br i1 %81, label %82, label %86

82:                                               ; preds = %72
  %83 = load ptr, ptr %5, align 8
  %84 = getelementptr inbounds %struct.lxb_html_tokenizer, ptr %83, i32 0, i32 31
  store i32 2, ptr %84, align 8
  %85 = load ptr, ptr %7, align 8
  store ptr %85, ptr %4, align 8
  br label %200

86:                                               ; preds = %72
  br label %87

87:                                               ; preds = %86
  %88 = load ptr, ptr %5, align 8
  %89 = getelementptr inbounds %struct.lxb_html_tokenizer, ptr %88, i32 0, i32 0
  store ptr @lxb_html_tokenizer_state_doctype_system_identifier_double_quoted, ptr %89, align 8
  %90 = load ptr, ptr %6, align 8
  %91 = getelementptr inbounds i8, ptr %90, i64 1
  store ptr %91, ptr %4, align 8
  br label %200

92:                                               ; preds = %3
  br label %93

93:                                               ; preds = %92
  %94 = load ptr, ptr %5, align 8
  %95 = getelementptr inbounds %struct.lxb_html_tokenizer, ptr %94, i32 0, i32 8
  %96 = load ptr, ptr %95, align 8
  %97 = load ptr, ptr %5, align 8
  %98 = getelementptr inbounds %struct.lxb_html_tokenizer, ptr %97, i32 0, i32 10
  %99 = load ptr, ptr %98, align 8
  %100 = call ptr @lxb_html_token_attr_append(ptr noundef %96, ptr noundef %99)
  store ptr %100, ptr %8, align 8
  %101 = load ptr, ptr %8, align 8
  %102 = icmp eq ptr %101, null
  br i1 %102, label %103, label %107

103:                                              ; preds = %93
  %104 = load ptr, ptr %5, align 8
  %105 = getelementptr inbounds %struct.lxb_html_tokenizer, ptr %104, i32 0, i32 31
  store i32 2, ptr %105, align 8
  %106 = load ptr, ptr %7, align 8
  store ptr %106, ptr %4, align 8
  br label %200

107:                                              ; preds = %93
  br label %108

108:                                              ; preds = %107
  %109 = load ptr, ptr %5, align 8
  %110 = getelementptr inbounds %struct.lxb_html_tokenizer, ptr %109, i32 0, i32 0
  store ptr @lxb_html_tokenizer_state_doctype_system_identifier_single_quoted, ptr %110, align 8
  %111 = load ptr, ptr %6, align 8
  %112 = getelementptr inbounds i8, ptr %111, i64 1
  store ptr %112, ptr %4, align 8
  br label %200

113:                                              ; preds = %3
  %114 = load ptr, ptr %5, align 8
  %115 = getelementptr inbounds %struct.lxb_html_tokenizer, ptr %114, i32 0, i32 32
  %116 = load i8, ptr %115, align 4
  %117 = trunc i8 %116 to i1
  br i1 %117, label %118, label %184

118:                                              ; preds = %113
  %119 = load ptr, ptr %5, align 8
  %120 = getelementptr inbounds %struct.lxb_html_tokenizer, ptr %119, i32 0, i32 11
  %121 = load ptr, ptr %120, align 8
  %122 = load ptr, ptr %5, align 8
  %123 = getelementptr inbounds %struct.lxb_html_tokenizer, ptr %122, i32 0, i32 20
  %124 = load ptr, ptr %123, align 8
  %125 = call ptr @lxb_html_tokenizer_error_add(ptr noundef %121, ptr noundef %124, i32 noundef 14)
  %126 = load ptr, ptr %5, align 8
  %127 = getelementptr inbounds %struct.lxb_html_tokenizer, ptr %126, i32 0, i32 8
  %128 = load ptr, ptr %127, align 8
  %129 = getelementptr inbounds %struct.lxb_html_token_t, ptr %128, i32 0, i32 11
  %130 = load i32, ptr %129, align 8
  %131 = or i32 %130, 4
  store i32 %131, ptr %129, align 8
  br label %132

132:                                              ; preds = %118
  %133 = load ptr, ptr %5, align 8
  %134 = getelementptr inbounds %struct.lxb_html_tokenizer, ptr %133, i32 0, i32 8
  %135 = load ptr, ptr %134, align 8
  %136 = getelementptr inbounds %struct.lxb_html_token_t, ptr %135, i32 0, i32 0
  %137 = load ptr, ptr %136, align 8
  %138 = load ptr, ptr %5, align 8
  %139 = getelementptr inbounds %struct.lxb_html_tokenizer, ptr %138, i32 0, i32 8
  %140 = load ptr, ptr %139, align 8
  %141 = getelementptr inbounds %struct.lxb_html_token_t, ptr %140, i32 0, i32 1
  %142 = load ptr, ptr %141, align 8
  %143 = icmp ne ptr %137, %142
  br i1 %143, label %144, label %173

144:                                              ; preds = %132
  %145 = load ptr, ptr %5, align 8
  %146 = getelementptr inbounds %struct.lxb_html_tokenizer, ptr %145, i32 0, i32 2
  %147 = load ptr, ptr %146, align 8
  %148 = load ptr, ptr %5, align 8
  %149 = load ptr, ptr %5, align 8
  %150 = getelementptr inbounds %struct.lxb_html_tokenizer, ptr %149, i32 0, i32 8
  %151 = load ptr, ptr %150, align 8
  %152 = load ptr, ptr %5, align 8
  %153 = getelementptr inbounds %struct.lxb_html_tokenizer, ptr %152, i32 0, i32 3
  %154 = load ptr, ptr %153, align 8
  %155 = call ptr %147(ptr noundef %148, ptr noundef %151, ptr noundef %154)
  %156 = load ptr, ptr %5, align 8
  %157 = getelementptr inbounds %struct.lxb_html_tokenizer, ptr %156, i32 0, i32 8
  store ptr %155, ptr %157, align 8
  %158 = load ptr, ptr %5, align 8
  %159 = getelementptr inbounds %struct.lxb_html_tokenizer, ptr %158, i32 0, i32 8
  %160 = load ptr, ptr %159, align 8
  %161 = icmp eq ptr %160, null
  br i1 %161, label %162, label %172

162:                                              ; preds = %144
  %163 = load ptr, ptr %5, align 8
  %164 = getelementptr inbounds %struct.lxb_html_tokenizer, ptr %163, i32 0, i32 31
  %165 = load i32, ptr %164, align 8
  %166 = icmp eq i32 %165, 0
  br i1 %166, label %167, label %170

167:                                              ; preds = %162
  %168 = load ptr, ptr %5, align 8
  %169 = getelementptr inbounds %struct.lxb_html_tokenizer, ptr %168, i32 0, i32 31
  store i32 1, ptr %169, align 8
  br label %170

170:                                              ; preds = %167, %162
  %171 = load ptr, ptr %7, align 8
  store ptr %171, ptr %4, align 8
  br label %200

172:                                              ; preds = %144
  br label %173

173:                                              ; preds = %172, %132
  %174 = load ptr, ptr %5, align 8
  %175 = getelementptr inbounds %struct.lxb_html_tokenizer, ptr %174, i32 0, i32 8
  %176 = load ptr, ptr %175, align 8
  call void @lxb_html_token_clean(ptr noundef %176)
  %177 = load ptr, ptr %5, align 8
  %178 = getelementptr inbounds %struct.lxb_html_tokenizer, ptr %177, i32 0, i32 16
  %179 = load ptr, ptr %178, align 8
  %180 = load ptr, ptr %5, align 8
  %181 = getelementptr inbounds %struct.lxb_html_tokenizer, ptr %180, i32 0, i32 17
  store ptr %179, ptr %181, align 8
  br label %182

182:                                              ; preds = %173
  %183 = load ptr, ptr %7, align 8
  store ptr %183, ptr %4, align 8
  br label %200

184:                                              ; preds = %113
  br label %185

185:                                              ; preds = %184, %3
  %186 = load ptr, ptr %5, align 8
  %187 = getelementptr inbounds %struct.lxb_html_tokenizer, ptr %186, i32 0, i32 11
  %188 = load ptr, ptr %187, align 8
  %189 = load ptr, ptr %6, align 8
  %190 = call ptr @lxb_html_tokenizer_error_add(ptr noundef %188, ptr noundef %189, i32 noundef 27)
  %191 = load ptr, ptr %5, align 8
  %192 = getelementptr inbounds %struct.lxb_html_tokenizer, ptr %191, i32 0, i32 8
  %193 = load ptr, ptr %192, align 8
  %194 = getelementptr inbounds %struct.lxb_html_token_t, ptr %193, i32 0, i32 11
  %195 = load i32, ptr %194, align 8
  %196 = or i32 %195, 4
  store i32 %196, ptr %194, align 8
  %197 = load ptr, ptr %5, align 8
  %198 = getelementptr inbounds %struct.lxb_html_tokenizer, ptr %197, i32 0, i32 0
  store ptr @lxb_html_tokenizer_state_doctype_bogus, ptr %198, align 8
  %199 = load ptr, ptr %6, align 8
  store ptr %199, ptr %4, align 8
  br label %200

200:                                              ; preds = %185, %182, %170, %108, %103, %87, %82, %68, %56, %12
  %201 = load ptr, ptr %4, align 8
  ret ptr %201
}