; Function Attrs: nounwind uwtable
define internal ptr @lxb_html_tokenizer_state_doctype_between_public_and_system_identifiers(ptr noundef %0, ptr noundef %1, ptr noundef readnone %2) #0 {
  %4 = load i8, ptr %1, align 1
  switch i8 %4, label %89 [
    i8 9, label %5
    i8 10, label %5
    i8 12, label %5
    i8 13, label %5
    i8 32, label %5
    i8 62, label %7
    i8 34, label %31
    i8 39, label %42
    i8 0, label %53
  ]

5:                                                ; preds = %3, %3, %3, %3, %3
  %6 = getelementptr inbounds i8, ptr %1, i64 1
  br label %98

7:                                                ; preds = %3
  store ptr @lxb_html_tokenizer_state_data_before, ptr %0, align 8
  %8 = getelementptr inbounds i8, ptr %0, i64 64
  %9 = load ptr, ptr %8, align 8
  %10 = load ptr, ptr %9, align 8
  %11 = getelementptr inbounds i8, ptr %9, i64 8
  %12 = load ptr, ptr %11, align 8
  %.not58 = icmp eq ptr %10, %12
  br i1 %.not58, label %25, label %13

13:                                               ; preds = %7
  %14 = getelementptr inbounds i8, ptr %0, i64 16
  %15 = load ptr, ptr %14, align 8
  %16 = getelementptr inbounds i8, ptr %0, i64 24
  %17 = load ptr, ptr %16, align 8
  %18 = tail call ptr %15(ptr noundef nonnull %0, ptr noundef nonnull %9, ptr noundef %17) #4
  store ptr %18, ptr %8, align 8
  %19 = icmp eq ptr %18, null
  br i1 %19, label %20, label %25

20:                                               ; preds = %13
  %21 = getelementptr inbounds i8, ptr %0, i64 232
  %22 = load i32, ptr %21, align 8
  %23 = icmp eq i32 %22, 0
  br i1 %23, label %24, label %98

24:                                               ; preds = %20
  store i32 1, ptr %21, align 8
  br label %98

25:                                               ; preds = %13, %7
  %26 = phi ptr [ %18, %13 ], [ %9, %7 ]
  tail call void @llvm.memset.p0.i64(ptr noundef nonnull align 8 dereferenceable(96) %26, i8 0, i64 96, i1 false)
  %27 = getelementptr inbounds i8, ptr %0, i64 128
  %28 = load ptr, ptr %27, align 8
  %29 = getelementptr inbounds i8, ptr %0, i64 136
  store ptr %28, ptr %29, align 8
  %30 = getelementptr inbounds i8, ptr %1, i64 1
  br label %98

31:                                               ; preds = %3
  %32 = getelementptr inbounds i8, ptr %0, i64 64
  %33 = load ptr, ptr %32, align 8
  %34 = getelementptr inbounds i8, ptr %0, i64 80
  %35 = load ptr, ptr %34, align 8
  %36 = tail call ptr @lxb_html_token_attr_append(ptr noundef %33, ptr noundef %35) #4
  %37 = icmp eq ptr %36, null
  br i1 %37, label %38, label %40

38:                                               ; preds = %31
  %39 = getelementptr inbounds i8, ptr %0, i64 232
  store i32 2, ptr %39, align 8
  br label %98

40:                                               ; preds = %31
  store ptr @lxb_html_tokenizer_state_doctype_system_identifier_double_quoted, ptr %0, align 8
  %41 = getelementptr inbounds i8, ptr %1, i64 1
  br label %98

42:                                               ; preds = %3
  %43 = getelementptr inbounds i8, ptr %0, i64 64
  %44 = load ptr, ptr %43, align 8
  %45 = getelementptr inbounds i8, ptr %0, i64 80
  %46 = load ptr, ptr %45, align 8
  %47 = tail call ptr @lxb_html_token_attr_append(ptr noundef %44, ptr noundef %46) #4
  %48 = icmp eq ptr %47, null
  br i1 %48, label %49, label %51

49:                                               ; preds = %42
  %50 = getelementptr inbounds i8, ptr %0, i64 232
  store i32 2, ptr %50, align 8
  br label %98

51:                                               ; preds = %42
  store ptr @lxb_html_tokenizer_state_doctype_system_identifier_single_quoted, ptr %0, align 8
  %52 = getelementptr inbounds i8, ptr %1, i64 1
  br label %98

53:                                               ; preds = %3
  %54 = getelementptr inbounds i8, ptr %0, i64 236
  %55 = load i8, ptr %54, align 4
  %56 = and i8 %55, 1
  %.not = icmp eq i8 %56, 0
  br i1 %.not, label %89, label %57

57:                                               ; preds = %53
  %58 = getelementptr inbounds i8, ptr %0, i64 88
  %59 = load ptr, ptr %58, align 8
  %60 = getelementptr inbounds i8, ptr %0, i64 160
  %61 = load ptr, ptr %60, align 8
  %62 = tail call ptr @lxb_html_tokenizer_error_add(ptr noundef %59, ptr noundef %61, i32 noundef 14) #4
  %63 = getelementptr inbounds i8, ptr %0, i64 64
  %64 = load ptr, ptr %63, align 8
  %65 = getelementptr inbounds i8, ptr %64, i64 88
  %66 = load i32, ptr %65, align 8
  %67 = or i32 %66, 4
  store i32 %67, ptr %65, align 8
  %68 = load ptr, ptr %63, align 8
  %69 = load ptr, ptr %68, align 8
  %70 = getelementptr inbounds i8, ptr %68, i64 8
  %71 = load ptr, ptr %70, align 8
  %.not57 = icmp eq ptr %69, %71
  br i1 %.not57, label %84, label %72

72:                                               ; preds = %57
  %73 = getelementptr inbounds i8, ptr %0, i64 16
  %74 = load ptr, ptr %73, align 8
  %75 = getelementptr inbounds i8, ptr %0, i64 24
  %76 = load ptr, ptr %75, align 8
  %77 = tail call ptr %74(ptr noundef nonnull %0, ptr noundef nonnull %68, ptr noundef %76) #4
  store ptr %77, ptr %63, align 8
  %78 = icmp eq ptr %77, null
  br i1 %78, label %79, label %84

79:                                               ; preds = %72
  %80 = getelementptr inbounds i8, ptr %0, i64 232
  %81 = load i32, ptr %80, align 8
  %82 = icmp eq i32 %81, 0
  br i1 %82, label %83, label %98

83:                                               ; preds = %79
  store i32 1, ptr %80, align 8
  br label %98

84:                                               ; preds = %72, %57
  %85 = phi ptr [ %77, %72 ], [ %68, %57 ]
  tail call void @llvm.memset.p0.i64(ptr noundef nonnull align 8 dereferenceable(96) %85, i8 0, i64 96, i1 false)
  %86 = getelementptr inbounds i8, ptr %0, i64 128
  %87 = load ptr, ptr %86, align 8
  %88 = getelementptr inbounds i8, ptr %0, i64 136
  store ptr %87, ptr %88, align 8
  br label %98

89:                                               ; preds = %53, %3
  %90 = getelementptr inbounds i8, ptr %0, i64 88
  %91 = load ptr, ptr %90, align 8
  %92 = tail call ptr @lxb_html_tokenizer_error_add(ptr noundef %91, ptr noundef nonnull %1, i32 noundef 27) #4
  %93 = getelementptr inbounds i8, ptr %0, i64 64
  %94 = load ptr, ptr %93, align 8
  %95 = getelementptr inbounds i8, ptr %94, i64 88
  %96 = load i32, ptr %95, align 8
  %97 = or i32 %96, 4
  store i32 %97, ptr %95, align 8
  store ptr @lxb_html_tokenizer_state_doctype_bogus, ptr %0, align 8
  br label %98

98:                                               ; preds = %79, %83, %20, %24, %89, %84, %51, %49, %40, %38, %25, %5
  %.0 = phi ptr [ %1, %89 ], [ %2, %84 ], [ %2, %49 ], [ %52, %51 ], [ %2, %38 ], [ %41, %40 ], [ %30, %25 ], [ %6, %5 ], [ %2, %24 ], [ %2, %20 ], [ %2, %83 ], [ %2, %79 ]
  ret ptr %.0
}